; ModuleID = '40/2956.c'
source_filename = "40/2956.c"
target datalayout = "e-m:e-p270:32:32-p271:32:32-p272:64:64-i64:64-f80:128-n8:16:32:64-S128"
target triple = "x86_64-pc-linux-gnu"

@.str = private unnamed_addr constant [3 x i8] c"%f\00", align 1
@.str.1 = private unnamed_addr constant [3 x i8] c"%d\00", align 1
@.str.2 = private unnamed_addr constant [15 x i8] c"Invalid input\0A\00", align 1
@.str.3 = private unnamed_addr constant [6 x i8] c"%.4f\0A\00", align 1

; Function Attrs: noinline nounwind uwtable
define dso_local i32 @main() #0 {
  %1 = alloca i32, align 4
  %2 = alloca float, align 4
  %3 = alloca float, align 4
  %4 = alloca float, align 4
  %5 = alloca float, align 4
  %6 = alloca float, align 4
  %7 = alloca float, align 4
  %8 = alloca float, align 4
  %9 = alloca i32, align 4
  store i32 0, i32* %1, align 4
  %10 = call i32 (i8*, ...) @__isoc99_scanf(i8* getelementptr inbounds ([3 x i8], [3 x i8]* @.str, i64 0, i64 0), float* %2)
  %11 = call i32 (i8*, ...) @__isoc99_scanf(i8* getelementptr inbounds ([3 x i8], [3 x i8]* @.str, i64 0, i64 0), float* %3)
  %12 = call i32 (i8*, ...) @__isoc99_scanf(i8* getelementptr inbounds ([3 x i8], [3 x i8]* @.str, i64 0, i64 0), float* %4)
  %13 = call i32 (i8*, ...) @__isoc99_scanf(i8* getelementptr inbounds ([3 x i8], [3 x i8]* @.str, i64 0, i64 0), float* %5)
  %14 = call i32 (i8*, ...) @__isoc99_scanf(i8* getelementptr inbounds ([3 x i8], [3 x i8]* @.str.1, i64 0, i64 0), i32* %9)
  %15 = load i32, i32* %9, align 4
  %16 = sitofp i32 %15 to float
  %17 = fpext float %16 to double
  %18 = fmul double %17, 3.140000e+00
  %19 = fdiv double %18, 1.800000e+02
  %20 = fptrunc double %19 to float
  store float %20, float* %6, align 4
  %21 = load float, float* %6, align 4
  %22 = fdiv float %21, 2.000000e+00
  store float %22, float* %6, align 4
  %23 = load float, float* %2, align 4
  %24 = load float, float* %3, align 4
  %25 = fadd float %23, %24
  %26 = load float, float* %4, align 4
  %27 = fadd float %25, %26
  %28 = load float, float* %5, align 4
  %29 = fadd float %27, %28
  store float %29, float* %7, align 4
  %30 = load float, float* %7, align 4
  %31 = fdiv float %30, 2.000000e+00
  store float %31, float* %7, align 4
  %32 = load float, float* %7, align 4
  %33 = load float, float* %2, align 4
  %34 = fsub float %32, %33
  %35 = load float, float* %7, align 4
  %36 = load float, float* %3, align 4
  %37 = fsub float %35, %36
  %38 = fmul float %34, %37
  %39 = load float, float* %7, align 4
  %40 = load float, float* %4, align 4
  %41 = fsub float %39, %40
  %42 = fmul float %38, %41
  %43 = load float, float* %7, align 4
  %44 = load float, float* %5, align 4
  %45 = fsub float %43, %44
  %46 = fmul float %42, %45
  %47 = fpext float %46 to double
  %48 = load float, float* %2, align 4
  %49 = load float, float* %3, align 4
  %50 = fmul float %48, %49
  %51 = load float, float* %4, align 4
  %52 = fmul float %50, %51
  %53 = load float, float* %5, align 4
  %54 = fmul float %52, %53
  %55 = fpext float %54 to double
  %56 = load float, float* %6, align 4
  %57 = fpext float %56 to double
  %58 = call double @cos(double %57) #3
  %59 = fmul double %55, %58
  %60 = load float, float* %6, align 4
  %61 = fpext float %60 to double
  %62 = call double @cos(double %61) #3
  %63 = fmul double %59, %62
  %64 = fsub double %47, %63
  %65 = fptrunc double %64 to float
  store float %65, float* %8, align 4
  %66 = load float, float* %8, align 4
  %67 = fcmp olt float %66, 0.000000e+00
  br i1 %67, label %68, label %70

68:                                               ; preds = %0
  %69 = call i32 (i8*, ...) @printf(i8* getelementptr inbounds ([15 x i8], [15 x i8]* @.str.2, i64 0, i64 0))
  br label %75

70:                                               ; preds = %0
  %71 = load float, float* %8, align 4
  %72 = fpext float %71 to double
  %73 = call double @sqrt(double %72) #3
  %74 = call i32 (i8*, ...) @printf(i8* getelementptr inbounds ([6 x i8], [6 x i8]* @.str.3, i64 0, i64 0), double %73)
  br label %75

75:                                               ; preds = %70, %68
  ret i32 0
}

declare dso_local i32 @__isoc99_scanf(i8*, ...) #1

; Function Attrs: nounwind
declare dso_local double @cos(double) #2

declare dso_local i32 @printf(i8*, ...) #1

; Function Attrs: nounwind
declare dso_local double @sqrt(double) #2


!llvm.module.flags = !{!0}
!llvm.ident = !{!1}

!0 = !{i32 1, !"wchar_size", i32 4}
!1 = !{!"clang version 10.0.0-4ubuntu1 "}
